target datalayout = "e-m:e-p270:32:32-p271:32:32-p272:64:64-i64:64-i128:128-f80:128-n8:16:32:64-S128"
target triple = "x86_64-pc-linux-gnu"

%struct.hb_segment_properties_t = type { i32, i32, ptr, ptr, ptr }
%struct.hb_ot_shape_plan_t = type <{ %struct.hb_segment_properties_t, ptr, %struct.hb_ot_map_t, ptr, i32, i32, i32, i32, i32, i32, i16, [6 x i8] }>
%struct.hb_ot_map_t = type { [2 x i32], [2 x i8], i32, %struct.hb_vector_t.1, [2 x %struct.hb_vector_t.2], [2 x %struct.hb_vector_t.3] }
%struct.hb_vector_t.1 = type { i32, i32, ptr }
%struct.hb_vector_t.2 = type { i32, i32, ptr }
%struct.hb_vector_t.3 = type { i32, i32, ptr }
%struct.hb_shape_plan_key_t = type { %struct.hb_segment_properties_t, ptr, i32, %struct.hb_ot_shape_plan_key_t, ptr, ptr }
%struct.hb_ot_shape_plan_key_t = type { [2 x i32] }
%struct.hb_shape_plan_t = type { %struct.hb_object_header_t, ptr, %struct.hb_shape_plan_key_t, %struct.hb_ot_shape_plan_t }
%struct.hb_object_header_t = type { %struct.hb_reference_count_t, %struct.hb_atomic_int_t, %struct.hb_atomic_ptr_t }
%struct.hb_reference_count_t = type { %struct.hb_atomic_int_t }
%struct.hb_atomic_int_t = type { i32 }
%struct.hb_atomic_ptr_t = type { ptr }

; Function Attrs: mustprogress uwtable
define linkonce_odr hidden void @_ZNK18hb_ot_shape_plan_t15collect_lookupsEjP8hb_set_t(ptr noundef nonnull align 8 dereferenceable(170) %0, i32 noundef %1, ptr noundef %2) #0 comdat align 2 {
  %4 = alloca ptr, align 8
  %5 = alloca i32, align 4
  %6 = alloca ptr, align 8
  %7 = alloca i32, align 4
  store ptr %0, ptr %4, align 8
  store i32 %1, ptr %5, align 4
  store ptr %2, ptr %6, align 8
  %8 = load ptr, ptr %4, align 8
  %9 = load i32, ptr %5, align 4
  switch i32 %9, label %12 [
    i32 1196643650, label %10
    i32 1196445523, label %11
  ]

10:                                               ; preds = %3
  store i32 0, ptr %7, align 4
  br label %13

11:                                               ; preds = %3
  store i32 1, ptr %7, align 4
  br label %13

12:                                               ; preds = %3
  br label %17

13:                                               ; preds = %11, %10
  %14 = getelementptr inbounds %struct.hb_ot_shape_plan_t, ptr %8, i32 0, i32 2
  %15 = load i32, ptr %7, align 4
  %16 = load ptr, ptr %6, align 8
  call void @_ZNK11hb_ot_map_t15collect_lookupsEjP8hb_set_t(ptr noundef nonnull align 8 dereferenceable(96) %14, i32 noundef %15, ptr noundef %16)
  br label %17

17:                                               ; preds = %13, %12
  ret void
}

; Function Attrs: mustprogress uwtable
define hidden void @hb_ot_shape_plan_collect_lookups(ptr noundef %0, i32 noundef %1, ptr noundef %2) #0 {
  %4 = alloca ptr, align 8
  %5 = alloca i32, align 4
  %6 = alloca ptr, align 8
  store ptr %0, ptr %4, align 8
  store i32 %1, ptr %5, align 4
  store ptr %2, ptr %6, align 8
  %7 = load ptr, ptr %4, align 8
  %8 = getelementptr inbounds %struct.hb_shape_plan_t, ptr %7, i32 0, i32 3
  %9 = load i32, ptr %5, align 4
  %10 = load ptr, ptr %6, align 8
  call void @_ZNK18hb_ot_shape_plan_t15collect_lookupsEjP8hb_set_t(ptr noundef nonnull align 8 dereferenceable(170) %8, i32 noundef %9, ptr noundef %10)
  ret void
}