; Function Attrs: mustprogress uwtable
define hidden void @hb_ot_shape_plan_collect_lookups(ptr noundef %0, i32 noundef %1, ptr noundef %2) local_unnamed_addr #0 {
  switch i32 %1, label %_ZNK18hb_ot_shape_plan_t15collect_lookupsEjP8hb_set_t.exit [
    i32 1196643650, label %5
    i32 1196445523, label %4
  ]

4:                                                ; preds = %3
  br label %5

5:                                                ; preds = %4, %3
  %.0.i = phi i32 [ 1, %4 ], [ 0, %3 ]
  %6 = getelementptr inbounds i8, ptr %0, i64 136
  tail call void @_ZNK11hb_ot_map_t15collect_lookupsEjP8hb_set_t(ptr noundef nonnull align 8 dereferenceable(96) %6, i32 noundef %.0.i, ptr noundef %2)
  br label %_ZNK18hb_ot_shape_plan_t15collect_lookupsEjP8hb_set_t.exit

_ZNK18hb_ot_shape_plan_t15collect_lookupsEjP8hb_set_t.exit: ; preds = %3, %5
  ret void
}